; Function Attrs: mustprogress null_pointer_is_valid sspstrong uwtable
define void @_ZN14InfoProxyModelC2EP7QObject(ptr noundef align 8 dereferenceable_or_null(48) %0, ptr noundef %1) unnamed_addr #0 align 2 {
  tail call void @_ZN19QIdentityProxyModelC2EP7QObject(ptr noundef align 8 dereferenceable_or_null(16) %0, ptr noundef %1)
  store ptr getelementptr inbounds nuw inrange(-16, 432) (i8, ptr @_ZTV14InfoProxyModel, i64 16), ptr %0, align 8
  %3 = getelementptr inbounds nuw i8, ptr %0, i64 16
  store i32 -1, ptr %3, align 8
  %4 = getelementptr inbounds nuw i8, ptr %0, i64 24
  tail call void @llvm.memset.p0.i64(ptr noundef nonnull align 8 dereferenceable(24) dereferenceable_or_null(24) %4, i8 0, i64 24, i1 false)
  ret void
}